target datalayout = "e-m:e-p270:32:32-p271:32:32-p272:64:64-i64:64-i128:128-f80:128-n8:16:32:64-S128"
target triple = "x86_64-unknown-linux-gnu"

%"class.std::set.0" = type { %"class.std::_Rb_tree.1" }
%"class.std::_Rb_tree.1" = type { %"struct.std::_Rb_tree<QuantLib::Observer *, QuantLib::Observer *, std::_Identity<QuantLib::Observer *>, std::less<QuantLib::Observer *>>::_Rb_tree_impl" }
%"struct.std::_Rb_tree<QuantLib::Observer *, QuantLib::Observer *, std::_Identity<QuantLib::Observer *>, std::less<QuantLib::Observer *>>::_Rb_tree_impl" = type { [8 x i8], %"struct.std::_Rb_tree_header" }
%"struct.std::_Rb_tree_header" = type { %"struct.std::_Rb_tree_node_base", i64 }
%"struct.std::_Rb_tree_node_base" = type { i32, ptr, ptr, ptr }
%"class.QuantLib::Date" = type { i64 }
%"class.boost::detail::shared_count" = type { ptr }
%"class.std::set" = type { %"class.std::_Rb_tree" }
%"class.std::_Rb_tree" = type { %"struct.std::_Rb_tree<boost::shared_ptr<QuantLib::Observable>, boost::shared_ptr<QuantLib::Observable>, std::_Identity<boost::shared_ptr<QuantLib::Observable>>, std::less<boost::shared_ptr<QuantLib::Observable>>>::_Rb_tree_impl" }
%"struct.std::_Rb_tree<boost::shared_ptr<QuantLib::Observable>, boost::shared_ptr<QuantLib::Observable>, std::_Identity<boost::shared_ptr<QuantLib::Observable>>, std::less<boost::shared_ptr<QuantLib::Observable>>>::_Rb_tree_impl" = type { [8 x i8], %"struct.std::_Rb_tree_header" }
%"class.QuantLib::Observable" = type { ptr, %"class.std::set.0" }
%"class.QuantLib::DayCounter" = type { %"class.boost::shared_ptr.16" }
%"class.boost::shared_ptr.16" = type { ptr, %"class.boost::detail::shared_count" }
%"class.QuantLib::Handle.53" = type { %"class.boost::shared_ptr.54" }
%"class.boost::shared_ptr.54" = type { ptr, %"class.boost::detail::shared_count" }
%"class.QuantLib::LinearTsrPricer" = type { %"class.QuantLib::CmsCouponPricer.base", %"class.QuantLib::MeanRevertingPricer", double, double, %"class.QuantLib::Handle", %"class.QuantLib::Handle.50", %"class.QuantLib::Handle.50", %"class.QuantLib::Handle.50", ptr, %"class.QuantLib::Date", %"class.QuantLib::Date", %"class.QuantLib::Date", double, double, %"class.QuantLib::Period", double, double, double, double, double, %"class.boost::shared_ptr.55", %"class.boost::shared_ptr.56", %"class.boost::shared_ptr.48", %"struct.QuantLib::LinearTsrPricer::Settings", %"class.QuantLib::DayCounter", %"class.boost::shared_ptr.52", double, double, %"class.QuantLib::Observer", %"class.QuantLib::Observable" }
%"class.QuantLib::CmsCouponPricer.base" = type { %"class.QuantLib::FloatingRateCouponPricer.base", %"class.QuantLib::Handle.53" }
%"class.QuantLib::FloatingRateCouponPricer.base" = type { ptr }
%"class.QuantLib::MeanRevertingPricer" = type { ptr }
%"class.QuantLib::Handle" = type { %"class.boost::shared_ptr.49" }
%"class.boost::shared_ptr.49" = type { ptr, %"class.boost::detail::shared_count" }
%"class.QuantLib::Handle.50" = type { %"class.boost::shared_ptr.51" }
%"class.boost::shared_ptr.51" = type { ptr, %"class.boost::detail::shared_count" }
%"class.QuantLib::Period" = type { i32, i32 }
%"class.boost::shared_ptr.55" = type { ptr, %"class.boost::detail::shared_count" }
%"class.boost::shared_ptr.56" = type { ptr, %"class.boost::detail::shared_count" }
%"class.boost::shared_ptr.48" = type { ptr, %"class.boost::detail::shared_count" }
%"struct.QuantLib::LinearTsrPricer::Settings" = type <{ i32, [4 x i8], double, double, double, double, double, i8, [7 x i8] }>
%"class.boost::shared_ptr.52" = type { ptr, %"class.boost::detail::shared_count" }
%"class.QuantLib::Observer" = type { ptr, %"class.std::set" }

@.str.15 = private unnamed_addr constant [8 x i8] c"px != 0\00", align 1
@.str.16 = private unnamed_addr constant [102 x i8] c"generated/home/dtcxzyw/WorkSpace/SDK/vcpkg/installed/x64-linux/include/boost/smart_ptr/shared_ptr.hpp\00", align 1
@__PRETTY_FUNCTION__._ZNK5boost10shared_ptrIN8QuantLib12SmileSectionEEptEv = private unnamed_addr constant [141 x i8] c"typename boost::detail::sp_member_access<T>::type boost::shared_ptr<QuantLib::SmileSection>::operator->() const [T = QuantLib::SmileSection]\00", align 1

; Function Attrs: mustprogress uwtable
define linkonce_odr noundef ptr @_ZNK5boost10shared_ptrIN8QuantLib12SmileSectionEEptEv(ptr noundef nonnull align 8 dereferenceable(16) %this) #2 comdat align 2 {
entry:
  %this.addr = alloca ptr, align 8
  store ptr %this, ptr %this.addr, align 8, !tbaa !3
  %this1 = load ptr, ptr %this.addr, align 8
  %px = getelementptr inbounds nuw %"class.boost::shared_ptr.48", ptr %this1, i32 0, i32 0
  %0 = load ptr, ptr %px, align 8, !tbaa !31
  %cmp = icmp ne ptr %0, null
  %lnot = xor i1 %cmp, true
  %lnot2 = xor i1 %lnot, true
  %conv = zext i1 %lnot2 to i64
  %expval = call i64 @llvm.expect.i64(i64 %conv, i64 1)
  %tobool = icmp ne i64 %expval, 0
  br i1 %tobool, label %cond.true, label %cond.false

cond.true:                                        ; preds = %entry
  br label %cond.end

cond.false:                                       ; preds = %entry
  call void @_ZN5boost16assertion_failedEPKcS1_S1_l(ptr noundef @.str.15, ptr noundef @__PRETTY_FUNCTION__._ZNK5boost10shared_ptrIN8QuantLib12SmileSectionEEptEv, ptr noundef @.str.16, i64 noundef 784)
  br label %cond.end

cond.end:                                         ; preds = %cond.false, %cond.true
  %px3 = getelementptr inbounds nuw %"class.boost::shared_ptr.48", ptr %this1, i32 0, i32 0
  %1 = load ptr, ptr %px3, align 8, !tbaa !31
  ret ptr %1
}

; Function Attrs: mustprogress uwtable
define noundef double @_ZNK8QuantLib15LinearTsrPricer9integrandEd(ptr noundef nonnull align 8 dereferenceable(360) %this, double noundef %strike) #2 align 2 {
entry:
  %this.addr = alloca ptr, align 8
  %strike.addr = alloca double, align 8
  store ptr %this, ptr %this.addr, align 8, !tbaa !3
  store double %strike, ptr %strike.addr, align 8, !tbaa !17
  %this1 = load ptr, ptr %this.addr, align 8
  %a_ = getelementptr inbounds nuw %"class.QuantLib::LinearTsrPricer", ptr %this1, i32 0, i32 2
  %0 = load double, ptr %a_, align 8, !tbaa !59
  %mul = fmul double 2.000000e+00, %0
  %smileSection_ = getelementptr inbounds nuw %"class.QuantLib::LinearTsrPricer", ptr %this1, i32 0, i32 22
  %call = call noundef ptr @_ZNK5boost10shared_ptrIN8QuantLib12SmileSectionEEptEv(ptr noundef nonnull align 8 dereferenceable(16) %smileSection_)
  %1 = load double, ptr %strike.addr, align 8, !tbaa !17
  %2 = load double, ptr %strike.addr, align 8, !tbaa !17
  %swapRateValue_ = getelementptr inbounds nuw %"class.QuantLib::LinearTsrPricer", ptr %this1, i32 0, i32 16
  %3 = load double, ptr %swapRateValue_, align 8, !tbaa !43
  %cmp = fcmp olt double %2, %3
  %cond = select i1 %cmp, i32 -1, i32 1
  %vtable = load ptr, ptr %call, align 8, !tbaa !12
  %vfn = getelementptr inbounds ptr, ptr %vtable, i64 12
  %4 = load ptr, ptr %vfn, align 8
  %call2 = call noundef double %4(ptr noundef nonnull align 8 dereferenceable(72) %call, double noundef %1, i32 noundef %cond, double noundef 1.000000e+00)
  %mul3 = fmul double %mul, %call2
  ret double %mul3
}