; Function Attrs: mustprogress uwtable
define noundef double @_ZNK8QuantLib15LinearTsrPricer9integrandEd(ptr nocapture noundef nonnull readonly align 8 dereferenceable(360) %this, double noundef %strike) local_unnamed_addr #7 align 2 {
entry:
  %a_ = getelementptr inbounds nuw i8, ptr %this, i64 32
  %0 = load double, ptr %a_, align 8, !tbaa !105
  %smileSection_ = getelementptr inbounds nuw i8, ptr %this, i64 240
  %1 = load ptr, ptr %smileSection_, align 8, !tbaa !107
  %cmp.not.i = icmp eq ptr %1, null
  br i1 %cmp.not.i, label %cond.false.i, label %_ZNK5boost10shared_ptrIN8QuantLib12SmileSectionEEptEv.exit, !prof !58

cond.false.i:                                     ; preds = %entry
  tail call void @_ZN5boost16assertion_failedEPKcS1_S1_l(ptr noundef nonnull @.str.15, ptr noundef nonnull @__PRETTY_FUNCTION__._ZNK5boost10shared_ptrIN8QuantLib12SmileSectionEEptEv, ptr noundef nonnull @.str.16, i64 noundef 784)
  %.pre.i = load ptr, ptr %smileSection_, align 8, !tbaa !107
  br label %_ZNK5boost10shared_ptrIN8QuantLib12SmileSectionEEptEv.exit

_ZNK5boost10shared_ptrIN8QuantLib12SmileSectionEEptEv.exit: ; preds = %entry, %cond.false.i
  %2 = phi ptr [ %1, %entry ], [ %.pre.i, %cond.false.i ]
  %mul = fmul double %0, 2.000000e+00
  %swapRateValue_ = getelementptr inbounds nuw i8, ptr %this, i64 176
  %3 = load double, ptr %swapRateValue_, align 8, !tbaa !91
  %cmp = fcmp olt double %strike, %3
  %cond = select i1 %cmp, i32 -1, i32 1
  %vtable = load ptr, ptr %2, align 8, !tbaa !35
  %vfn = getelementptr inbounds i8, ptr %vtable, i64 96
  %4 = load ptr, ptr %vfn, align 8
  %call2 = tail call noundef double %4(ptr noundef nonnull align 8 dereferenceable(72) %2, double noundef %strike, i32 noundef %cond, double noundef 1.000000e+00)
  %mul3 = fmul double %mul, %call2
  ret double %mul3
}